target datalayout = "e-m:e-p270:32:32-p271:32:32-p272:64:64-i64:64-i128:128-f80:128-n8:16:32:64-S128"
target triple = "x86_64-pc-linux-gnu"

%struct.VP8Io = type { i32, i32, i32, i32, i32, ptr, ptr, ptr, i32, i32, ptr, ptr, ptr, ptr, i32, i64, ptr, i32, i32, i32, i32, i32, i32, i32, i32, i32, ptr }
%struct.WebPDecParams = type { ptr, ptr, ptr, ptr, i32, ptr, ptr, ptr, ptr, ptr, ptr, ptr, ptr, ptr }
%struct.WebPDecBuffer = type { i32, i32, i32, i32, %union.anon, [4 x i32], ptr }
%union.anon = type { %struct.WebPYUVABuffer }
%struct.WebPYUVABuffer = type { ptr, ptr, ptr, ptr, i32, i32, i32, i32, i64, i64, i64, i64 }
%struct.WebPRGBABuffer = type { ptr, i32, i64 }

@WebPApplyAlphaMultiply4444 = external global ptr, align 8

; Function Attrs: inlinehint nounwind uwtable
define internal i32 @WebPIsPremultipliedMode(i32 noundef %0) #2 {
  %2 = alloca i32, align 4
  store i32 %0, ptr %2, align 4, !tbaa !19
  %3 = load i32, ptr %2, align 4, !tbaa !19
  %4 = icmp eq i32 %3, 7
  br i1 %4, label %14, label %5

5:                                                ; preds = %1
  %6 = load i32, ptr %2, align 4, !tbaa !19
  %7 = icmp eq i32 %6, 8
  br i1 %7, label %14, label %8

8:                                                ; preds = %5
  %9 = load i32, ptr %2, align 4, !tbaa !19
  %10 = icmp eq i32 %9, 9
  br i1 %10, label %14, label %11

11:                                               ; preds = %8
  %12 = load i32, ptr %2, align 4, !tbaa !19
  %13 = icmp eq i32 %12, 10
  br label %14

14:                                               ; preds = %11, %8, %5, %1
  %15 = phi i1 [ true, %8 ], [ true, %5 ], [ true, %1 ], [ %13, %11 ]
  %16 = zext i1 %15 to i32
  ret i32 %16
}

; Function Attrs: nounwind uwtable
define internal i32 @GetAlphaSourceRow(ptr noundef %0, ptr noundef %1, ptr noundef %2) #0 {
  %4 = alloca ptr, align 8
  %5 = alloca ptr, align 8
  %6 = alloca ptr, align 8
  %7 = alloca i32, align 4
  store ptr %0, ptr %4, align 8, !tbaa !8
  store ptr %1, ptr %5, align 8, !tbaa !99
  store ptr %2, ptr %6, align 8, !tbaa !42
  call void @llvm.lifetime.start.p0(i64 4, ptr %7) #6
  %8 = load ptr, ptr %4, align 8, !tbaa !8
  %9 = getelementptr inbounds nuw %struct.VP8Io, ptr %8, i32 0, i32 2
  %10 = load i32, ptr %9, align 8, !tbaa !66
  store i32 %10, ptr %7, align 4, !tbaa !19
  %11 = load ptr, ptr %4, align 8, !tbaa !8
  %12 = getelementptr inbounds nuw %struct.VP8Io, ptr %11, i32 0, i32 4
  %13 = load i32, ptr %12, align 8, !tbaa !20
  %14 = load ptr, ptr %6, align 8, !tbaa !42
  store i32 %13, ptr %14, align 4, !tbaa !19
  %15 = load ptr, ptr %4, align 8, !tbaa !8
  %16 = getelementptr inbounds nuw %struct.VP8Io, ptr %15, i32 0, i32 14
  %17 = load i32, ptr %16, align 8, !tbaa !35
  %18 = icmp ne i32 %17, 0
  br i1 %18, label %19, label %65

19:                                               ; preds = %3
  %20 = load i32, ptr %7, align 4, !tbaa !19
  %21 = icmp eq i32 %20, 0
  br i1 %21, label %22, label %26

22:                                               ; preds = %19
  %23 = load ptr, ptr %6, align 8, !tbaa !42
  %24 = load i32, ptr %23, align 4, !tbaa !19
  %25 = add nsw i32 %24, -1
  store i32 %25, ptr %23, align 4, !tbaa !19
  br label %37

26:                                               ; preds = %19
  %27 = load i32, ptr %7, align 4, !tbaa !19
  %28 = add nsw i32 %27, -1
  store i32 %28, ptr %7, align 4, !tbaa !19
  %29 = load ptr, ptr %4, align 8, !tbaa !8
  %30 = getelementptr inbounds nuw %struct.VP8Io, ptr %29, i32 0, i32 0
  %31 = load i32, ptr %30, align 8, !tbaa !81
  %32 = load ptr, ptr %5, align 8, !tbaa !99
  %33 = load ptr, ptr %32, align 8, !tbaa !44
  %34 = sext i32 %31 to i64
  %35 = sub i64 0, %34
  %36 = getelementptr inbounds i8, ptr %33, i64 %35
  store ptr %36, ptr %32, align 8, !tbaa !44
  br label %37

37:                                               ; preds = %26, %22
  %38 = load ptr, ptr %4, align 8, !tbaa !8
  %39 = getelementptr inbounds nuw %struct.VP8Io, ptr %38, i32 0, i32 21
  %40 = load i32, ptr %39, align 8, !tbaa !76
  %41 = load ptr, ptr %4, align 8, !tbaa !8
  %42 = getelementptr inbounds nuw %struct.VP8Io, ptr %41, i32 0, i32 2
  %43 = load i32, ptr %42, align 8, !tbaa !66
  %44 = add nsw i32 %40, %43
  %45 = load ptr, ptr %4, align 8, !tbaa !8
  %46 = getelementptr inbounds nuw %struct.VP8Io, ptr %45, i32 0, i32 4
  %47 = load i32, ptr %46, align 8, !tbaa !20
  %48 = add nsw i32 %44, %47
  %49 = load ptr, ptr %4, align 8, !tbaa !8
  %50 = getelementptr inbounds nuw %struct.VP8Io, ptr %49, i32 0, i32 22
  %51 = load i32, ptr %50, align 4, !tbaa !77
  %52 = icmp eq i32 %48, %51
  br i1 %52, label %53, label %64

53:                                               ; preds = %37
  %54 = load ptr, ptr %4, align 8, !tbaa !8
  %55 = getelementptr inbounds nuw %struct.VP8Io, ptr %54, i32 0, i32 22
  %56 = load i32, ptr %55, align 4, !tbaa !77
  %57 = load ptr, ptr %4, align 8, !tbaa !8
  %58 = getelementptr inbounds nuw %struct.VP8Io, ptr %57, i32 0, i32 21
  %59 = load i32, ptr %58, align 8, !tbaa !76
  %60 = sub nsw i32 %56, %59
  %61 = load i32, ptr %7, align 4, !tbaa !19
  %62 = sub nsw i32 %60, %61
  %63 = load ptr, ptr %6, align 8, !tbaa !42
  store i32 %62, ptr %63, align 4, !tbaa !19
  br label %64

64:                                               ; preds = %53, %37
  br label %65

65:                                               ; preds = %64, %3
  %66 = load i32, ptr %7, align 4, !tbaa !19
  call void @llvm.lifetime.end.p0(i64 4, ptr %7) #6
  ret i32 %66
}

; Function Attrs: nounwind uwtable
define internal i32 @EmitAlphaRGBA4444(ptr noundef %0, ptr noundef %1, i32 noundef %2) #0 {
  %4 = alloca ptr, align 8
  %5 = alloca ptr, align 8
  %6 = alloca i32, align 4
  %7 = alloca ptr, align 8
  %8 = alloca i32, align 4
  %9 = alloca i32, align 4
  %10 = alloca ptr, align 8
  %11 = alloca i32, align 4
  %12 = alloca i32, align 4
  %13 = alloca ptr, align 8
  %14 = alloca ptr, align 8
  %15 = alloca i32, align 4
  %16 = alloca i32, align 4
  %17 = alloca i32, align 4
  %18 = alloca i32, align 4
  store ptr %0, ptr %4, align 8, !tbaa !8
  store ptr %1, ptr %5, align 8, !tbaa !3
  store i32 %2, ptr %6, align 4, !tbaa !19
  call void @llvm.lifetime.start.p0(i64 8, ptr %7) #6
  %19 = load ptr, ptr %4, align 8, !tbaa !8
  %20 = getelementptr inbounds nuw %struct.VP8Io, ptr %19, i32 0, i32 26
  %21 = load ptr, ptr %20, align 8, !tbaa !78
  store ptr %21, ptr %7, align 8, !tbaa !44
  %22 = load ptr, ptr %7, align 8, !tbaa !44
  %23 = icmp ne ptr %22, null
  br i1 %23, label %24, label %123

24:                                               ; preds = %3
  call void @llvm.lifetime.start.p0(i64 4, ptr %8) #6
  %25 = load ptr, ptr %4, align 8, !tbaa !8
  %26 = getelementptr inbounds nuw %struct.VP8Io, ptr %25, i32 0, i32 3
  %27 = load i32, ptr %26, align 4, !tbaa !18
  store i32 %27, ptr %8, align 4, !tbaa !19
  call void @llvm.lifetime.start.p0(i64 4, ptr %9) #6
  %28 = load ptr, ptr %5, align 8, !tbaa !3
  %29 = getelementptr inbounds nuw %struct.WebPDecParams, ptr %28, i32 0, i32 0
  %30 = load ptr, ptr %29, align 8, !tbaa !28
  %31 = getelementptr inbounds nuw %struct.WebPDecBuffer, ptr %30, i32 0, i32 0
  %32 = load i32, ptr %31, align 8, !tbaa !29
  store i32 %32, ptr %9, align 4, !tbaa !19
  call void @llvm.lifetime.start.p0(i64 8, ptr %10) #6
  %33 = load ptr, ptr %5, align 8, !tbaa !3
  %34 = getelementptr inbounds nuw %struct.WebPDecParams, ptr %33, i32 0, i32 0
  %35 = load ptr, ptr %34, align 8, !tbaa !28
  %36 = getelementptr inbounds nuw %struct.WebPDecBuffer, ptr %35, i32 0, i32 4
  store ptr %36, ptr %10, align 8, !tbaa !62
  call void @llvm.lifetime.start.p0(i64 4, ptr %11) #6
  call void @llvm.lifetime.start.p0(i64 4, ptr %12) #6
  %37 = load ptr, ptr %4, align 8, !tbaa !8
  %38 = call i32 @GetAlphaSourceRow(ptr noundef %37, ptr noundef %7, ptr noundef %11)
  store i32 %38, ptr %12, align 4, !tbaa !19
  call void @llvm.lifetime.start.p0(i64 8, ptr %13) #6
  %39 = load ptr, ptr %10, align 8, !tbaa !62
  %40 = getelementptr inbounds nuw %struct.WebPRGBABuffer, ptr %39, i32 0, i32 0
  %41 = load ptr, ptr %40, align 8, !tbaa !64
  %42 = load i32, ptr %12, align 4, !tbaa !19
  %43 = sext i32 %42 to i64
  %44 = load ptr, ptr %10, align 8, !tbaa !62
  %45 = getelementptr inbounds nuw %struct.WebPRGBABuffer, ptr %44, i32 0, i32 1
  %46 = load i32, ptr %45, align 8, !tbaa !67
  %47 = sext i32 %46 to i64
  %48 = mul nsw i64 %43, %47
  %49 = getelementptr inbounds i8, ptr %41, i64 %48
  store ptr %49, ptr %13, align 8, !tbaa !44
  call void @llvm.lifetime.start.p0(i64 8, ptr %14) #6
  %50 = load ptr, ptr %13, align 8, !tbaa !44
  %51 = getelementptr inbounds i8, ptr %50, i64 1
  store ptr %51, ptr %14, align 8, !tbaa !44
  call void @llvm.lifetime.start.p0(i64 4, ptr %15) #6
  store i32 15, ptr %15, align 4, !tbaa !19
  call void @llvm.lifetime.start.p0(i64 4, ptr %16) #6
  call void @llvm.lifetime.start.p0(i64 4, ptr %17) #6
  store i32 0, ptr %17, align 4, !tbaa !19
  br label %52

52:                                               ; preds = %104, %24
  %53 = load i32, ptr %17, align 4, !tbaa !19
  %54 = load i32, ptr %11, align 4, !tbaa !19
  %55 = icmp slt i32 %53, %54
  br i1 %55, label %56, label %107

56:                                               ; preds = %52
  store i32 0, ptr %16, align 4, !tbaa !19
  br label %57

57:                                               ; preds = %88, %56
  %58 = load i32, ptr %16, align 4, !tbaa !19
  %59 = load i32, ptr %8, align 4, !tbaa !19
  %60 = icmp slt i32 %58, %59
  br i1 %60, label %61, label %91

61:                                               ; preds = %57
  call void @llvm.lifetime.start.p0(i64 4, ptr %18) #6
  %62 = load ptr, ptr %7, align 8, !tbaa !44
  %63 = load i32, ptr %16, align 4, !tbaa !19
  %64 = sext i32 %63 to i64
  %65 = getelementptr inbounds i8, ptr %62, i64 %64
  %66 = load i8, ptr %65, align 1, !tbaa !79
  %67 = zext i8 %66 to i32
  %68 = ashr i32 %67, 4
  store i32 %68, ptr %18, align 4, !tbaa !19
  %69 = load ptr, ptr %14, align 8, !tbaa !44
  %70 = load i32, ptr %16, align 4, !tbaa !19
  %71 = mul nsw i32 2, %70
  %72 = sext i32 %71 to i64
  %73 = getelementptr inbounds i8, ptr %69, i64 %72
  %74 = load i8, ptr %73, align 1, !tbaa !79
  %75 = zext i8 %74 to i32
  %76 = and i32 %75, 240
  %77 = load i32, ptr %18, align 4, !tbaa !19
  %78 = or i32 %76, %77
  %79 = trunc i32 %78 to i8
  %80 = load ptr, ptr %14, align 8, !tbaa !44
  %81 = load i32, ptr %16, align 4, !tbaa !19
  %82 = mul nsw i32 2, %81
  %83 = sext i32 %82 to i64
  %84 = getelementptr inbounds i8, ptr %80, i64 %83
  store i8 %79, ptr %84, align 1, !tbaa !79
  %85 = load i32, ptr %18, align 4, !tbaa !19
  %86 = load i32, ptr %15, align 4, !tbaa !19
  %87 = and i32 %86, %85
  store i32 %87, ptr %15, align 4, !tbaa !19
  call void @llvm.lifetime.end.p0(i64 4, ptr %18) #6
  br label %88

88:                                               ; preds = %61
  %89 = load i32, ptr %16, align 4, !tbaa !19
  %90 = add nsw i32 %89, 1
  store i32 %90, ptr %16, align 4, !tbaa !19
  br label %57, !llvm.loop !80

91:                                               ; preds = %57
  %92 = load ptr, ptr %4, align 8, !tbaa !8
  %93 = getelementptr inbounds nuw %struct.VP8Io, ptr %92, i32 0, i32 0
  %94 = load i32, ptr %93, align 8, !tbaa !81
  %95 = load ptr, ptr %7, align 8, !tbaa !44
  %96 = sext i32 %94 to i64
  %97 = getelementptr inbounds i8, ptr %95, i64 %96
  store ptr %97, ptr %7, align 8, !tbaa !44
  %98 = load ptr, ptr %10, align 8, !tbaa !62
  %99 = getelementptr inbounds nuw %struct.WebPRGBABuffer, ptr %98, i32 0, i32 1
  %100 = load i32, ptr %99, align 8, !tbaa !67
  %101 = load ptr, ptr %14, align 8, !tbaa !44
  %102 = sext i32 %100 to i64
  %103 = getelementptr inbounds i8, ptr %101, i64 %102
  store ptr %103, ptr %14, align 8, !tbaa !44
  br label %104

104:                                              ; preds = %91
  %105 = load i32, ptr %17, align 4, !tbaa !19
  %106 = add nsw i32 %105, 1
  store i32 %106, ptr %17, align 4, !tbaa !19
  br label %52, !llvm.loop !82

107:                                              ; preds = %52
  %108 = load i32, ptr %15, align 4, !tbaa !19
  %109 = icmp ne i32 %108, 15
  br i1 %109, label %110, label %122

110:                                              ; preds = %107
  %111 = load i32, ptr %9, align 4, !tbaa !19
  %112 = call i32 @WebPIsPremultipliedMode(i32 noundef %111)
  %113 = icmp ne i32 %112, 0
  br i1 %113, label %114, label %122

114:                                              ; preds = %110
  %115 = load ptr, ptr @WebPApplyAlphaMultiply4444, align 8, !tbaa !73
  %116 = load ptr, ptr %13, align 8, !tbaa !44
  %117 = load i32, ptr %8, align 4, !tbaa !19
  %118 = load i32, ptr %11, align 4, !tbaa !19
  %119 = load ptr, ptr %10, align 8, !tbaa !62
  %120 = getelementptr inbounds nuw %struct.WebPRGBABuffer, ptr %119, i32 0, i32 1
  %121 = load i32, ptr %120, align 8, !tbaa !67
  call void %115(ptr noundef %116, i32 noundef %117, i32 noundef %118, i32 noundef %121)
  br label %122

122:                                              ; preds = %114, %110, %107
  call void @llvm.lifetime.end.p0(i64 4, ptr %17) #6
  call void @llvm.lifetime.end.p0(i64 4, ptr %16) #6
  call void @llvm.lifetime.end.p0(i64 4, ptr %15) #6
  call void @llvm.lifetime.end.p0(i64 8, ptr %14) #6
  call void @llvm.lifetime.end.p0(i64 8, ptr %13) #6
  call void @llvm.lifetime.end.p0(i64 4, ptr %12) #6
  call void @llvm.lifetime.end.p0(i64 4, ptr %11) #6
  call void @llvm.lifetime.end.p0(i64 8, ptr %10) #6
  call void @llvm.lifetime.end.p0(i64 4, ptr %9) #6
  call void @llvm.lifetime.end.p0(i64 4, ptr %8) #6
  br label %123

123:                                              ; preds = %122, %3
  call void @llvm.lifetime.end.p0(i64 8, ptr %7) #6
  ret i32 0
}