; Function Attrs: nounwind uwtable
define internal noundef i32 @EmitAlphaRGBA4444(ptr noundef readonly captures(none) %0, ptr noundef readonly captures(none) %1, i32 %2) #1 {
  %4 = getelementptr inbounds nuw i8, ptr %0, i64 152
  %5 = load ptr, ptr %4, align 8, !tbaa !63
  %.not = icmp eq ptr %5, null
  br i1 %.not, label %._crit_edge48.thread, label %6

6:                                                ; preds = %3
  %7 = getelementptr inbounds nuw i8, ptr %0, i64 12
  %8 = load i32, ptr %7, align 4, !tbaa !14
  %9 = load ptr, ptr %1, align 8, !tbaa !23
  %10 = load i32, ptr %9, align 8, !tbaa !24
  %11 = getelementptr inbounds nuw i8, ptr %9, i64 16
  %12 = getelementptr inbounds nuw i8, ptr %0, i64 8
  %13 = load i32, ptr %12, align 8, !tbaa !51
  %14 = getelementptr inbounds nuw i8, ptr %0, i64 16
  %15 = load i32, ptr %14, align 8, !tbaa !15
  %16 = getelementptr inbounds nuw i8, ptr %0, i64 88
  %17 = load i32, ptr %16, align 8, !tbaa !45
  %.not.i = icmp eq i32 %17, 0
  br i1 %.not.i, label %GetAlphaSourceRow.exit, label %18

18:                                               ; preds = %6
  %19 = icmp eq i32 %13, 0
  br i1 %19, label %20, label %22

20:                                               ; preds = %18
  %21 = add nsw i32 %15, -1
  br label %28

22:                                               ; preds = %18
  %23 = add nsw i32 %13, -1
  %24 = load i32, ptr %0, align 8, !tbaa !64
  %25 = sext i32 %24 to i64
  %26 = sub nsw i64 0, %25
  %27 = getelementptr inbounds i8, ptr %5, i64 %26
  br label %28

28:                                               ; preds = %22, %20
  %.140 = phi ptr [ %5, %20 ], [ %27, %22 ]
  %.037 = phi i32 [ %21, %20 ], [ %15, %22 ]
  %.1.i = phi i32 [ 0, %20 ], [ %23, %22 ]
  %29 = getelementptr inbounds nuw i8, ptr %0, i64 128
  %30 = load i32, ptr %29, align 8, !tbaa !61
  %31 = add i32 %15, %13
  %32 = add i32 %31, %30
  %33 = getelementptr inbounds nuw i8, ptr %0, i64 132
  %34 = load i32, ptr %33, align 4, !tbaa !62
  %35 = icmp eq i32 %32, %34
  %36 = sub i32 %31, %.1.i
  %spec.select = select i1 %35, i32 %36, i32 %.037
  br label %GetAlphaSourceRow.exit

GetAlphaSourceRow.exit:                           ; preds = %28, %6
  %.2 = phi ptr [ %5, %6 ], [ %.140, %28 ]
  %.138 = phi i32 [ %15, %6 ], [ %spec.select, %28 ]
  %.0.i = phi i32 [ %13, %6 ], [ %.1.i, %28 ]
  %37 = load ptr, ptr %11, align 8, !tbaa !49
  %38 = sext i32 %.0.i to i64
  %39 = getelementptr inbounds nuw i8, ptr %9, i64 24
  %40 = load i32, ptr %39, align 8, !tbaa !52
  %41 = sext i32 %40 to i64
  %42 = mul nsw i64 %41, %38
  %43 = getelementptr inbounds i8, ptr %37, i64 %42
  %44 = icmp sgt i32 %.138, 0
  %45 = icmp sgt i32 %8, 0
  %or.cond57 = select i1 %44, i1 %45, i1 false
  br i1 %or.cond57, label %.preheader.us.preheader, label %._crit_edge48.thread

.preheader.us.preheader:                          ; preds = %GetAlphaSourceRow.exit
  %46 = getelementptr inbounds nuw i8, ptr %43, i64 1
  %wide.trip.count = zext nneg i32 %8 to i64
  br label %.preheader.us

.preheader.us:                                    ; preds = %.preheader.us.preheader, %._crit_edge.us
  %.047.us = phi ptr [ %63, %._crit_edge.us ], [ %46, %.preheader.us.preheader ]
  %.02946.us = phi i32 [ %64, %._crit_edge.us ], [ 0, %.preheader.us.preheader ]
  %.03145.us = phi i32 [ %57, %._crit_edge.us ], [ 15, %.preheader.us.preheader ]
  %.03944.us = phi ptr [ %60, %._crit_edge.us ], [ %.2, %.preheader.us.preheader ]
  br label %47

47:                                               ; preds = %.preheader.us, %47
  %indvars.iv = phi i64 [ 0, %.preheader.us ], [ %indvars.iv.next, %47 ]
  %.142.us = phi i32 [ %.03145.us, %.preheader.us ], [ %57, %47 ]
  %48 = getelementptr inbounds nuw i8, ptr %.03944.us, i64 %indvars.iv
  %49 = load i8, ptr %48, align 1, !tbaa !65
  %50 = lshr i8 %49, 4
  %51 = zext nneg i8 %50 to i32
  %52 = shl nuw nsw i64 %indvars.iv, 1
  %53 = getelementptr inbounds nuw i8, ptr %.047.us, i64 %52
  %54 = load i8, ptr %53, align 1, !tbaa !65
  %55 = and i8 %54, -16
  %56 = or disjoint i8 %55, %50
  store i8 %56, ptr %53, align 1, !tbaa !65
  %57 = and i32 %.142.us, %51
  %indvars.iv.next = add nuw nsw i64 %indvars.iv, 1
  %exitcond.not = icmp eq i64 %indvars.iv.next, %wide.trip.count
  br i1 %exitcond.not, label %._crit_edge.us, label %47, !llvm.loop !66

._crit_edge.us:                                   ; preds = %47
  %58 = load i32, ptr %0, align 8, !tbaa !64
  %59 = sext i32 %58 to i64
  %60 = getelementptr inbounds i8, ptr %.03944.us, i64 %59
  %61 = load i32, ptr %39, align 8, !tbaa !52
  %62 = sext i32 %61 to i64
  %63 = getelementptr inbounds i8, ptr %.047.us, i64 %62
  %64 = add nuw nsw i32 %.02946.us, 1
  %exitcond52.not = icmp eq i32 %64, %.138
  br i1 %exitcond52.not, label %._crit_edge48, label %.preheader.us, !llvm.loop !67

._crit_edge48:                                    ; preds = %._crit_edge.us
  %65 = icmp eq i32 %57, 15
  %66 = add i32 %10, -11
  %narrow.i = icmp ult i32 %66, -4
  %or.cond = select i1 %65, i1 true, i1 %narrow.i
  br i1 %or.cond, label %._crit_edge48.thread, label %67

67:                                               ; preds = %._crit_edge48
  %68 = load ptr, ptr @WebPApplyAlphaMultiply4444, align 8, !tbaa !58
  tail call void %68(ptr noundef %43, i32 noundef %8, i32 noundef %.138, i32 noundef %61) #6
  br label %._crit_edge48.thread

._crit_edge48.thread:                             ; preds = %GetAlphaSourceRow.exit, %._crit_edge48, %67, %3
  ret i32 0
}